target datalayout = "e-m:e-p270:32:32-p271:32:32-p272:64:64-i64:64-i128:128-f80:128-n8:16:32:64-S128"
target triple = "x86_64-pc-linux-gnu"

%"class.icu_77::UnicodeSet" = type <{ %"class.icu_77::UnicodeFilter", ptr, i32, i32, i8, [7 x i8], ptr, ptr, i32, [4 x i8], ptr, i32, [4 x i8], ptr, ptr, [25 x i32], [4 x i8] }>
%"class.icu_77::UnicodeFilter" = type { %"class.icu_77::UnicodeFunctor", %"class.icu_77::UnicodeMatcher" }
%"class.icu_77::UnicodeFunctor" = type { %"class.icu_77::UObject" }
%"class.icu_77::UObject" = type { ptr }
%"class.icu_77::UnicodeMatcher" = type { ptr }
%"class.icu_77::UnicodeString" = type { %"class.icu_77::Replaceable", %"union.icu_77::UnicodeString::StackBufferOrFields" }
%"class.icu_77::Replaceable" = type { %"class.icu_77::UObject" }
%"union.icu_77::UnicodeString::StackBufferOrFields" = type { %struct.anon.0, [32 x i8] }
%struct.anon.0 = type { i16, i32, i32, ptr }
%"class.icu_77::RBBIRuleScanner" = type { ptr, ptr, i32, i32, i8, i32, i32, i32, %"struct.icu_77::RBBIRuleScanner::RBBIRuleChar", %"class.icu_77::UnicodeString", ptr, [100 x i16], i32, [100 x ptr], i32, i8, i8, i8, ptr, ptr, [10 x %"class.icu_77::UnicodeSet"], i32, i32, ptr, ptr, ptr, ptr }
%"struct.icu_77::RBBIRuleScanner::RBBIRuleChar" = type <{ i32, i8, [3 x i8] }>
%"class.icu_77::RBBIRuleBuilder" = type { ptr, ptr, ptr, ptr, ptr, %"class.icu_77::UnicodeString", ptr, ptr, ptr, ptr, ptr, ptr, i8, i8, ptr, ptr, ptr, ptr }
%struct.UParseError = type { i32, i32, [16 x i16], [16 x i16] }

; Function Attrs: inlinehint mustprogress nounwind uwtable
define internal noundef signext i8 @_ZL9U_SUCCESS10UErrorCode(i32 noundef %0) #5 {
  %2 = alloca i32, align 4
  store i32 %0, ptr %2, align 4, !tbaa !53
  %3 = load i32, ptr %2, align 4, !tbaa !53
  %4 = icmp sle i32 %3, 0
  %5 = zext i1 %4 to i8
  ret i8 %5
}

; Function Attrs: mustprogress uwtable
define void @_ZN6icu_7715RBBIRuleScanner5errorE10UErrorCode(ptr noundef nonnull align 8 dereferenceable(3192) %0, i32 noundef %1) #0 align 2 {
  %3 = alloca ptr, align 8
  %4 = alloca i32, align 4
  store ptr %0, ptr %3, align 8, !tbaa !3
  store i32 %1, ptr %4, align 4, !tbaa !53
  %5 = load ptr, ptr %3, align 8
  %6 = getelementptr inbounds nuw %"class.icu_77::RBBIRuleScanner", ptr %5, i32 0, i32 1
  %7 = load ptr, ptr %6, align 8, !tbaa !12
  %8 = getelementptr inbounds nuw %"class.icu_77::RBBIRuleBuilder", ptr %7, i32 0, i32 2
  %9 = load ptr, ptr %8, align 8, !tbaa !44
  %10 = load i32, ptr %9, align 4, !tbaa !53
  %11 = call noundef signext i8 @_ZL9U_SUCCESS10UErrorCode(i32 noundef %10)
  %12 = icmp ne i8 %11, 0
  br i1 %12, label %13, label %52

13:                                               ; preds = %2
  %14 = load i32, ptr %4, align 4, !tbaa !53
  %15 = getelementptr inbounds nuw %"class.icu_77::RBBIRuleScanner", ptr %5, i32 0, i32 1
  %16 = load ptr, ptr %15, align 8, !tbaa !12
  %17 = getelementptr inbounds nuw %"class.icu_77::RBBIRuleBuilder", ptr %16, i32 0, i32 2
  %18 = load ptr, ptr %17, align 8, !tbaa !44
  store i32 %14, ptr %18, align 4, !tbaa !53
  %19 = getelementptr inbounds nuw %"class.icu_77::RBBIRuleScanner", ptr %5, i32 0, i32 1
  %20 = load ptr, ptr %19, align 8, !tbaa !12
  %21 = getelementptr inbounds nuw %"class.icu_77::RBBIRuleBuilder", ptr %20, i32 0, i32 3
  %22 = load ptr, ptr %21, align 8, !tbaa !96
  %23 = icmp ne ptr %22, null
  br i1 %23, label %24, label %51

24:                                               ; preds = %13
  %25 = getelementptr inbounds nuw %"class.icu_77::RBBIRuleScanner", ptr %5, i32 0, i32 5
  %26 = load i32, ptr %25, align 4, !tbaa !27
  %27 = getelementptr inbounds nuw %"class.icu_77::RBBIRuleScanner", ptr %5, i32 0, i32 1
  %28 = load ptr, ptr %27, align 8, !tbaa !12
  %29 = getelementptr inbounds nuw %"class.icu_77::RBBIRuleBuilder", ptr %28, i32 0, i32 3
  %30 = load ptr, ptr %29, align 8, !tbaa !96
  %31 = getelementptr inbounds nuw %struct.UParseError, ptr %30, i32 0, i32 0
  store i32 %26, ptr %31, align 4, !tbaa !97
  %32 = getelementptr inbounds nuw %"class.icu_77::RBBIRuleScanner", ptr %5, i32 0, i32 6
  %33 = load i32, ptr %32, align 8, !tbaa !28
  %34 = getelementptr inbounds nuw %"class.icu_77::RBBIRuleScanner", ptr %5, i32 0, i32 1
  %35 = load ptr, ptr %34, align 8, !tbaa !12
  %36 = getelementptr inbounds nuw %"class.icu_77::RBBIRuleBuilder", ptr %35, i32 0, i32 3
  %37 = load ptr, ptr %36, align 8, !tbaa !96
  %38 = getelementptr inbounds nuw %struct.UParseError, ptr %37, i32 0, i32 1
  store i32 %33, ptr %38, align 4, !tbaa !99
  %39 = getelementptr inbounds nuw %"class.icu_77::RBBIRuleScanner", ptr %5, i32 0, i32 1
  %40 = load ptr, ptr %39, align 8, !tbaa !12
  %41 = getelementptr inbounds nuw %"class.icu_77::RBBIRuleBuilder", ptr %40, i32 0, i32 3
  %42 = load ptr, ptr %41, align 8, !tbaa !96
  %43 = getelementptr inbounds nuw %struct.UParseError, ptr %42, i32 0, i32 2
  %44 = getelementptr inbounds [16 x i16], ptr %43, i64 0, i64 0
  store i16 0, ptr %44, align 4, !tbaa !100
  %45 = getelementptr inbounds nuw %"class.icu_77::RBBIRuleScanner", ptr %5, i32 0, i32 1
  %46 = load ptr, ptr %45, align 8, !tbaa !12
  %47 = getelementptr inbounds nuw %"class.icu_77::RBBIRuleBuilder", ptr %46, i32 0, i32 3
  %48 = load ptr, ptr %47, align 8, !tbaa !96
  %49 = getelementptr inbounds nuw %struct.UParseError, ptr %48, i32 0, i32 3
  %50 = getelementptr inbounds [16 x i16], ptr %49, i64 0, i64 0
  store i16 0, ptr %50, align 4, !tbaa !100
  br label %51

51:                                               ; preds = %24, %13
  br label %52

52:                                               ; preds = %51, %2
  ret void
}