; Function Attrs: mustprogress nofree norecurse nosync nounwind willreturn memory(readwrite, inaccessiblemem: none) uwtable
define void @_ZN6icu_7715RBBIRuleScanner5errorE10UErrorCode(ptr noundef nonnull readonly align 8 captures(none) dereferenceable(3192) %0, i32 noundef %1) local_unnamed_addr #7 align 2 {
  %3 = getelementptr inbounds nuw i8, ptr %0, i64 8
  %4 = load ptr, ptr %3, align 8, !tbaa !12
  %5 = getelementptr inbounds nuw i8, ptr %4, i64 16
  %6 = load ptr, ptr %5, align 8, !tbaa !35
  %7 = load i32, ptr %6, align 4, !tbaa !45
  %8 = icmp sgt i32 %7, 0
  br i1 %8, label %20, label %9

9:                                                ; preds = %2
  store i32 %1, ptr %6, align 4, !tbaa !45
  %10 = getelementptr inbounds nuw i8, ptr %4, i64 24
  %11 = load ptr, ptr %10, align 8, !tbaa !58
  %.not1 = icmp eq ptr %11, null
  br i1 %.not1, label %20, label %12

12:                                               ; preds = %9
  %13 = getelementptr inbounds nuw i8, ptr %0, i64 28
  %14 = load i32, ptr %13, align 4, !tbaa !24
  store i32 %14, ptr %11, align 4, !tbaa !59
  %15 = getelementptr inbounds nuw i8, ptr %0, i64 32
  %16 = load i32, ptr %15, align 8, !tbaa !25
  %17 = getelementptr inbounds nuw i8, ptr %11, i64 4
  store i32 %16, ptr %17, align 4, !tbaa !61
  %18 = getelementptr inbounds nuw i8, ptr %11, i64 8
  store i16 0, ptr %18, align 4, !tbaa !50
  %19 = getelementptr inbounds nuw i8, ptr %11, i64 40
  store i16 0, ptr %19, align 4, !tbaa !50
  br label %20

20:                                               ; preds = %9, %12, %2
  ret void
}